; Function Attrs: inlinehint mustprogress uwtable
define internal noalias noundef nonnull ptr @_ZZN8pybind116detail16type_caster_baseIN12_GLOBAL__N_16I801B1EE21make_move_constructorIS3_vEEDTcmnw_T_piclsr3stdE7declvalIOS6_EEEtlPFPvPKvEEEPKS6_ENUlSA_E_8__invokeESA_(ptr noundef readonly captures(none) %0) #13 align 2 {
  %2 = tail call noalias noundef nonnull dereferenceable(16) ptr @_Znwm(i64 noundef 16) #40
  %3 = getelementptr i8, ptr %0, i64 8
  %.val.i = load i32, ptr %3, align 8, !tbaa !2630
  store ptr getelementptr inbounds nuw inrange(-16, 16) (i8, ptr @_ZTVN12_GLOBAL__N_16I801B1E, i64 16), ptr %2, align 8, !tbaa !1508
  %4 = getelementptr inbounds nuw i8, ptr %2, i64 8
  store i32 %.val.i, ptr %4, align 8, !tbaa !2630
  ret ptr %2
}